target datalayout = "e-m:e-p270:32:32-p271:32:32-p272:64:64-i64:64-i128:128-f80:128-n8:16:32:64-S128"
target triple = "x86_64-pc-linux-gnu"

; Function Attrs: inlinehint nounwind uwtable
define internal i32 @CompareWords(i64 noundef %0, i64 noundef %1) #5 {
  %3 = alloca i32, align 4
  %4 = alloca i64, align 8
  %5 = alloca i64, align 8
  store i64 %0, ptr %4, align 8, !tbaa !18
  store i64 %1, ptr %5, align 8, !tbaa !18
  %6 = load i64, ptr %4, align 8, !tbaa !18
  %7 = load i64, ptr %5, align 8, !tbaa !18
  %8 = icmp ugt i64 %6, %7
  br i1 %8, label %9, label %10

9:                                                ; preds = %2
  store i32 1, ptr %3, align 4
  br label %16

10:                                               ; preds = %2
  %11 = load i64, ptr %4, align 8, !tbaa !18
  %12 = load i64, ptr %5, align 8, !tbaa !18
  %13 = icmp ult i64 %11, %12
  br i1 %13, label %14, label %15

14:                                               ; preds = %10
  store i32 -1, ptr %3, align 4
  br label %16

15:                                               ; preds = %10
  store i32 0, ptr %3, align 4
  br label %16

16:                                               ; preds = %15, %14, %9
  %17 = load i32, ptr %3, align 4
  ret i32 %17
}

; Function Attrs: nounwind uwtable
define i32 @minTemp2_fast_iVar5(ptr noundef %0, i32 noundef %1, i32 noundef %2, i32 noundef %3, ptr noundef %4) #0 {
  %6 = alloca i32, align 4
  %7 = alloca ptr, align 8
  %8 = alloca i32, align 4
  %9 = alloca i32, align 4
  %10 = alloca i32, align 4
  %11 = alloca ptr, align 8
  %12 = alloca i32, align 4
  %13 = alloca i32, align 4
  %14 = alloca i32, align 4
  store ptr %0, ptr %7, align 8, !tbaa !12
  store i32 %1, ptr %8, align 4, !tbaa !8
  store i32 %2, ptr %9, align 4, !tbaa !8
  store i32 %3, ptr %10, align 4, !tbaa !8
  store ptr %4, ptr %11, align 8, !tbaa !12
  call void @llvm.lifetime.start.p0(i64 4, ptr %12) #7
  call void @llvm.lifetime.start.p0(i64 4, ptr %13) #7
  %15 = load i32, ptr %10, align 4, !tbaa !8
  %16 = mul nsw i32 %15, 2
  %17 = sub nsw i32 %16, 1
  store i32 %17, ptr %12, align 4, !tbaa !8
  br label %18

18:                                               ; preds = %53, %5
  %19 = load i32, ptr %12, align 4, !tbaa !8
  %20 = icmp sge i32 %19, 0
  br i1 %20, label %21, label %56

21:                                               ; preds = %18
  %22 = load ptr, ptr %7, align 8, !tbaa !12
  %23 = load i32, ptr %12, align 4, !tbaa !8
  %24 = load i32, ptr %8, align 4, !tbaa !8
  %25 = sub nsw i32 %23, %24
  %26 = sext i32 %25 to i64
  %27 = getelementptr inbounds i32, ptr %22, i64 %26
  %28 = load i32, ptr %27, align 4, !tbaa !8
  %29 = zext i32 %28 to i64
  %30 = load ptr, ptr %7, align 8, !tbaa !12
  %31 = load i32, ptr %12, align 4, !tbaa !8
  %32 = load i32, ptr %9, align 4, !tbaa !8
  %33 = sub nsw i32 %31, %32
  %34 = sext i32 %33 to i64
  %35 = getelementptr inbounds i32, ptr %30, i64 %34
  %36 = load i32, ptr %35, align 4, !tbaa !8
  %37 = zext i32 %36 to i64
  %38 = call i32 @CompareWords(i64 noundef %29, i64 noundef %37)
  store i32 %38, ptr %13, align 4, !tbaa !8
  %39 = load i32, ptr %13, align 4, !tbaa !8
  %40 = icmp eq i32 %39, 0
  br i1 %40, label %41, label %42

41:                                               ; preds = %21
  br label %53

42:                                               ; preds = %21
  %43 = load i32, ptr %13, align 4, !tbaa !8
  %44 = icmp eq i32 %43, -1
  br i1 %44, label %45, label %49

45:                                               ; preds = %42
  %46 = load i32, ptr %12, align 4, !tbaa !8
  %47 = add nsw i32 %46, 1
  %48 = load ptr, ptr %11, align 8, !tbaa !12
  store i32 %47, ptr %48, align 4, !tbaa !8
  store i32 0, ptr %6, align 4
  store i32 1, ptr %14, align 4
  br label %58

49:                                               ; preds = %42
  %50 = load i32, ptr %12, align 4, !tbaa !8
  %51 = add nsw i32 %50, 1
  %52 = load ptr, ptr %11, align 8, !tbaa !12
  store i32 %51, ptr %52, align 4, !tbaa !8
  store i32 1, ptr %6, align 4
  store i32 1, ptr %14, align 4
  br label %58

53:                                               ; preds = %41
  %54 = load i32, ptr %12, align 4, !tbaa !8
  %55 = sub nsw i32 %54, 4
  store i32 %55, ptr %12, align 4, !tbaa !8
  br label %18, !llvm.loop !28

56:                                               ; preds = %18
  %57 = load ptr, ptr %11, align 8, !tbaa !12
  store i32 0, ptr %57, align 4, !tbaa !8
  store i32 0, ptr %6, align 4
  store i32 1, ptr %14, align 4
  br label %58

58:                                               ; preds = %56, %49, %45
  call void @llvm.lifetime.end.p0(i64 4, ptr %13) #7
  call void @llvm.lifetime.end.p0(i64 4, ptr %12) #7
  %59 = load i32, ptr %6, align 4
  ret i32 %59
}