; Function Attrs: nofree norecurse nosync nounwind memory(argmem: readwrite) uwtable
define range(i32 0, 2) i32 @minTemp2_fast_iVar5(ptr noundef readonly captures(none) %0, i32 noundef %1, i32 noundef %2, i32 noundef %3, ptr noundef writeonly captures(none) %4) local_unnamed_addr #5 {
  %6 = icmp sgt i32 %3, 0
  br i1 %6, label %.lr.ph.preheader, label %._crit_edge

.lr.ph.preheader:                                 ; preds = %5
  %7 = shl nuw i32 %3, 1
  %8 = add i32 %7, -1
  %9 = sext i32 %8 to i64
  %10 = sext i32 %1 to i64
  %11 = sext i32 %2 to i64
  br label %.lr.ph

.lr.ph:                                           ; preds = %.lr.ph.preheader, %26
  %indvars.iv = phi i64 [ %9, %.lr.ph.preheader ], [ %indvars.iv.next, %26 ]
  %12 = sub nsw i64 %indvars.iv, %10
  %13 = getelementptr inbounds i32, ptr %0, i64 %12
  %14 = load i32, ptr %13, align 4, !tbaa !6
  %15 = zext i32 %14 to i64
  %16 = sub nsw i64 %indvars.iv, %11
  %17 = getelementptr inbounds i32, ptr %0, i64 %16
  %18 = load i32, ptr %17, align 4, !tbaa !6
  %19 = zext i32 %18 to i64
  %.0.i = tail call range(i32 -1, 2) i32 @llvm.ucmp.i32.i64(i64 %15, i64 %19)
  switch i32 %.0.i, label %23 [
    i32 0, label %26
    i32 -1, label %20
  ]

20:                                               ; preds = %.lr.ph
  %21 = trunc nsw i64 %indvars.iv to i32
  %22 = add nuw nsw i32 %21, 1
  br label %._crit_edge

23:                                               ; preds = %.lr.ph
  %24 = trunc nsw i64 %indvars.iv to i32
  %25 = add nuw nsw i32 %24, 1
  br label %._crit_edge

26:                                               ; preds = %.lr.ph
  %indvars.iv.next = add nsw i64 %indvars.iv, -4
  %27 = icmp sgt i64 %indvars.iv, 3
  br i1 %27, label %.lr.ph, label %._crit_edge, !llvm.loop !21

._crit_edge:                                      ; preds = %26, %5, %23, %20
  %.sink = phi i32 [ %25, %23 ], [ %22, %20 ], [ 0, %5 ], [ 0, %26 ]
  %.0 = phi i32 [ 1, %23 ], [ 0, %20 ], [ 0, %5 ], [ 0, %26 ]
  store i32 %.sink, ptr %4, align 4, !tbaa !6
  ret i32 %.0
}